target datalayout = "e-m:e-p270:32:32-p271:32:32-p272:64:64-i64:64-i128:128-f80:128-n8:16:32:64-S128"
target triple = "x86_64-pc-linux-gnu"

%struct.PHP_MURMUR3C_CTX = type { [4 x i32], [4 x i32], i32 }

; Function Attrs: nounwind uwtable
define void @PHP_MURMUR3CFinal(ptr noundef %0, ptr noundef %1) #0 {
  %3 = alloca ptr, align 8
  %4 = alloca ptr, align 8
  %5 = alloca [4 x i32], align 16
  store ptr %0, ptr %3, align 8
  store ptr %1, ptr %4, align 8
  call void @llvm.memset.p0.i64(ptr align 16 %5, i8 0, i64 16, i1 false)
  %6 = load ptr, ptr %4, align 8
  %7 = getelementptr inbounds %struct.PHP_MURMUR3C_CTX, ptr %6, i32 0, i32 0
  %8 = getelementptr inbounds [4 x i32], ptr %7, i64 0, i64 0
  %9 = load ptr, ptr %4, align 8
  %10 = getelementptr inbounds %struct.PHP_MURMUR3C_CTX, ptr %9, i32 0, i32 1
  %11 = getelementptr inbounds [4 x i32], ptr %10, i64 0, i64 0
  %12 = load ptr, ptr %4, align 8
  %13 = getelementptr inbounds %struct.PHP_MURMUR3C_CTX, ptr %12, i32 0, i32 2
  %14 = load i32, ptr %13, align 4
  %15 = getelementptr inbounds [4 x i32], ptr %5, i64 0, i64 0
  call void @PMurHash128x86_Result(ptr noundef %8, ptr noundef %11, i32 noundef %14, ptr noundef %15)
  %16 = getelementptr inbounds [4 x i32], ptr %5, i64 0, i64 0
  %17 = load i32, ptr %16, align 16
  %18 = lshr i32 %17, 24
  %19 = and i32 %18, 255
  %20 = trunc i32 %19 to i8
  %21 = load ptr, ptr %3, align 8
  %22 = getelementptr inbounds i8, ptr %21, i64 0
  store i8 %20, ptr %22, align 1
  %23 = getelementptr inbounds [4 x i32], ptr %5, i64 0, i64 0
  %24 = load i32, ptr %23, align 16
  %25 = lshr i32 %24, 16
  %26 = and i32 %25, 255
  %27 = trunc i32 %26 to i8
  %28 = load ptr, ptr %3, align 8
  %29 = getelementptr inbounds i8, ptr %28, i64 1
  store i8 %27, ptr %29, align 1
  %30 = getelementptr inbounds [4 x i32], ptr %5, i64 0, i64 0
  %31 = load i32, ptr %30, align 16
  %32 = lshr i32 %31, 8
  %33 = and i32 %32, 255
  %34 = trunc i32 %33 to i8
  %35 = load ptr, ptr %3, align 8
  %36 = getelementptr inbounds i8, ptr %35, i64 2
  store i8 %34, ptr %36, align 1
  %37 = getelementptr inbounds [4 x i32], ptr %5, i64 0, i64 0
  %38 = load i32, ptr %37, align 16
  %39 = and i32 %38, 255
  %40 = trunc i32 %39 to i8
  %41 = load ptr, ptr %3, align 8
  %42 = getelementptr inbounds i8, ptr %41, i64 3
  store i8 %40, ptr %42, align 1
  %43 = getelementptr inbounds [4 x i32], ptr %5, i64 0, i64 1
  %44 = load i32, ptr %43, align 4
  %45 = lshr i32 %44, 24
  %46 = and i32 %45, 255
  %47 = trunc i32 %46 to i8
  %48 = load ptr, ptr %3, align 8
  %49 = getelementptr inbounds i8, ptr %48, i64 4
  store i8 %47, ptr %49, align 1
  %50 = getelementptr inbounds [4 x i32], ptr %5, i64 0, i64 1
  %51 = load i32, ptr %50, align 4
  %52 = lshr i32 %51, 16
  %53 = and i32 %52, 255
  %54 = trunc i32 %53 to i8
  %55 = load ptr, ptr %3, align 8
  %56 = getelementptr inbounds i8, ptr %55, i64 5
  store i8 %54, ptr %56, align 1
  %57 = getelementptr inbounds [4 x i32], ptr %5, i64 0, i64 1
  %58 = load i32, ptr %57, align 4
  %59 = lshr i32 %58, 8
  %60 = and i32 %59, 255
  %61 = trunc i32 %60 to i8
  %62 = load ptr, ptr %3, align 8
  %63 = getelementptr inbounds i8, ptr %62, i64 6
  store i8 %61, ptr %63, align 1
  %64 = getelementptr inbounds [4 x i32], ptr %5, i64 0, i64 1
  %65 = load i32, ptr %64, align 4
  %66 = and i32 %65, 255
  %67 = trunc i32 %66 to i8
  %68 = load ptr, ptr %3, align 8
  %69 = getelementptr inbounds i8, ptr %68, i64 7
  store i8 %67, ptr %69, align 1
  %70 = getelementptr inbounds [4 x i32], ptr %5, i64 0, i64 2
  %71 = load i32, ptr %70, align 8
  %72 = lshr i32 %71, 24
  %73 = and i32 %72, 255
  %74 = trunc i32 %73 to i8
  %75 = load ptr, ptr %3, align 8
  %76 = getelementptr inbounds i8, ptr %75, i64 8
  store i8 %74, ptr %76, align 1
  %77 = getelementptr inbounds [4 x i32], ptr %5, i64 0, i64 2
  %78 = load i32, ptr %77, align 8
  %79 = lshr i32 %78, 16
  %80 = and i32 %79, 255
  %81 = trunc i32 %80 to i8
  %82 = load ptr, ptr %3, align 8
  %83 = getelementptr inbounds i8, ptr %82, i64 9
  store i8 %81, ptr %83, align 1
  %84 = getelementptr inbounds [4 x i32], ptr %5, i64 0, i64 2
  %85 = load i32, ptr %84, align 8
  %86 = lshr i32 %85, 8
  %87 = and i32 %86, 255
  %88 = trunc i32 %87 to i8
  %89 = load ptr, ptr %3, align 8
  %90 = getelementptr inbounds i8, ptr %89, i64 10
  store i8 %88, ptr %90, align 1
  %91 = getelementptr inbounds [4 x i32], ptr %5, i64 0, i64 2
  %92 = load i32, ptr %91, align 8
  %93 = and i32 %92, 255
  %94 = trunc i32 %93 to i8
  %95 = load ptr, ptr %3, align 8
  %96 = getelementptr inbounds i8, ptr %95, i64 11
  store i8 %94, ptr %96, align 1
  %97 = getelementptr inbounds [4 x i32], ptr %5, i64 0, i64 3
  %98 = load i32, ptr %97, align 4
  %99 = lshr i32 %98, 24
  %100 = and i32 %99, 255
  %101 = trunc i32 %100 to i8
  %102 = load ptr, ptr %3, align 8
  %103 = getelementptr inbounds i8, ptr %102, i64 12
  store i8 %101, ptr %103, align 1
  %104 = getelementptr inbounds [4 x i32], ptr %5, i64 0, i64 3
  %105 = load i32, ptr %104, align 4
  %106 = lshr i32 %105, 16
  %107 = and i32 %106, 255
  %108 = trunc i32 %107 to i8
  %109 = load ptr, ptr %3, align 8
  %110 = getelementptr inbounds i8, ptr %109, i64 13
  store i8 %108, ptr %110, align 1
  %111 = getelementptr inbounds [4 x i32], ptr %5, i64 0, i64 3
  %112 = load i32, ptr %111, align 4
  %113 = lshr i32 %112, 8
  %114 = and i32 %113, 255
  %115 = trunc i32 %114 to i8
  %116 = load ptr, ptr %3, align 8
  %117 = getelementptr inbounds i8, ptr %116, i64 14
  store i8 %115, ptr %117, align 1
  %118 = getelementptr inbounds [4 x i32], ptr %5, i64 0, i64 3
  %119 = load i32, ptr %118, align 4
  %120 = and i32 %119, 255
  %121 = trunc i32 %120 to i8
  %122 = load ptr, ptr %3, align 8
  %123 = getelementptr inbounds i8, ptr %122, i64 15
  store i8 %121, ptr %123, align 1
  ret void
}