; Function Attrs: nounwind uwtable
define void @PHP_MURMUR3CFinal(ptr nocapture noundef writeonly %0, ptr noundef %1) #0 {
  %3 = alloca [4 x i32], align 16
  call void @llvm.memset.p0.i64(ptr noundef nonnull align 16 dereferenceable(16) %3, i8 0, i64 16, i1 false)
  %4 = getelementptr inbounds i8, ptr %1, i64 16
  %5 = getelementptr inbounds i8, ptr %1, i64 32
  %6 = load i32, ptr %5, align 4
  call void @PMurHash128x86_Result(ptr noundef %1, ptr noundef nonnull %4, i32 noundef %6, ptr noundef nonnull %3) #5
  %7 = load i32, ptr %3, align 16
  %8 = lshr i32 %7, 24
  %9 = trunc i32 %8 to i8
  store i8 %9, ptr %0, align 1
  %10 = lshr i32 %7, 16
  %11 = trunc i32 %10 to i8
  %12 = getelementptr inbounds i8, ptr %0, i64 1
  store i8 %11, ptr %12, align 1
  %13 = lshr i32 %7, 8
  %14 = trunc i32 %13 to i8
  %15 = getelementptr inbounds i8, ptr %0, i64 2
  store i8 %14, ptr %15, align 1
  %16 = trunc i32 %7 to i8
  %17 = getelementptr inbounds i8, ptr %0, i64 3
  store i8 %16, ptr %17, align 1
  %18 = getelementptr inbounds i8, ptr %3, i64 4
  %19 = load i32, ptr %18, align 4
  %20 = lshr i32 %19, 24
  %21 = trunc i32 %20 to i8
  %22 = getelementptr inbounds i8, ptr %0, i64 4
  store i8 %21, ptr %22, align 1
  %23 = lshr i32 %19, 16
  %24 = trunc i32 %23 to i8
  %25 = getelementptr inbounds i8, ptr %0, i64 5
  store i8 %24, ptr %25, align 1
  %26 = lshr i32 %19, 8
  %27 = trunc i32 %26 to i8
  %28 = getelementptr inbounds i8, ptr %0, i64 6
  store i8 %27, ptr %28, align 1
  %29 = trunc i32 %19 to i8
  %30 = getelementptr inbounds i8, ptr %0, i64 7
  store i8 %29, ptr %30, align 1
  %31 = getelementptr inbounds i8, ptr %3, i64 8
  %32 = load i32, ptr %31, align 8
  %33 = lshr i32 %32, 24
  %34 = trunc i32 %33 to i8
  %35 = getelementptr inbounds i8, ptr %0, i64 8
  store i8 %34, ptr %35, align 1
  %36 = lshr i32 %32, 16
  %37 = trunc i32 %36 to i8
  %38 = getelementptr inbounds i8, ptr %0, i64 9
  store i8 %37, ptr %38, align 1
  %39 = lshr i32 %32, 8
  %40 = trunc i32 %39 to i8
  %41 = getelementptr inbounds i8, ptr %0, i64 10
  store i8 %40, ptr %41, align 1
  %42 = trunc i32 %32 to i8
  %43 = getelementptr inbounds i8, ptr %0, i64 11
  store i8 %42, ptr %43, align 1
  %44 = getelementptr inbounds i8, ptr %3, i64 12
  %45 = load i32, ptr %44, align 4
  %46 = lshr i32 %45, 24
  %47 = trunc i32 %46 to i8
  %48 = getelementptr inbounds i8, ptr %0, i64 12
  store i8 %47, ptr %48, align 1
  %49 = lshr i32 %45, 16
  %50 = trunc i32 %49 to i8
  %51 = getelementptr inbounds i8, ptr %0, i64 13
  store i8 %50, ptr %51, align 1
  %52 = lshr i32 %45, 8
  %53 = trunc i32 %52 to i8
  %54 = getelementptr inbounds i8, ptr %0, i64 14
  store i8 %53, ptr %54, align 1
  %55 = trunc i32 %45 to i8
  %56 = getelementptr inbounds i8, ptr %0, i64 15
  store i8 %55, ptr %56, align 1
  ret void
}